target datalayout = "e-m:e-p270:32:32-p271:32:32-p272:64:64-i64:64-i128:128-f80:128-n8:16:32:64-S128"
target triple = "x86_64-pc-linux-gnu"

@debug = global ptr null, align 8
@gmx_debug_at = global i8 0, align 1
@_ZL6bDebug = internal global i8 0, align 1
@.str = private unnamed_addr constant [3 x i8] c"w+\00", align 1

; Function Attrs: mustprogress uwtable
define void @_Z14gmx_init_debugiRKNSt10filesystem7__cxx114pathE(i32 noundef %0, ptr noundef nonnull align 8 dereferenceable(40) %1) #0 {
  %3 = alloca i32, align 4
  %4 = alloca ptr, align 8
  store i32 %0, ptr %3, align 4, !tbaa !4
  store ptr %1, ptr %4, align 8, !tbaa !8
  %5 = load i8, ptr @_ZL6bDebug, align 1, !tbaa !11, !range !13, !noundef !14
  %6 = trunc i8 %5 to i1
  br i1 %6, label %14, label %7

7:                                                ; preds = %2
  call void @_Z26gmx_disable_file_bufferingv()
  %8 = load ptr, ptr %4, align 8, !tbaa !8
  %9 = call noundef ptr @_Z10gmx_ffopenRKNSt10filesystem7__cxx114pathEPKc(ptr noundef nonnull align 8 dereferenceable(40) %8, ptr noundef @.str)
  store ptr %9, ptr @debug, align 8, !tbaa !15
  store i8 1, ptr @_ZL6bDebug, align 1, !tbaa !11
  %10 = load i32, ptr %3, align 4, !tbaa !4
  %11 = icmp sge i32 %10, 2
  br i1 %11, label %12, label %13

12:                                               ; preds = %7
  store i8 1, ptr @gmx_debug_at, align 1, !tbaa !11
  br label %13

13:                                               ; preds = %12, %7
  br label %14

14:                                               ; preds = %13, %2
  ret void
}