; Function Attrs: mustprogress uwtable
define void @_Z14gmx_init_debugiRKNSt10filesystem7__cxx114pathE(i32 noundef %0, ptr noundef nonnull align 8 dereferenceable(40) %1) local_unnamed_addr #0 {
  %.b1 = load i1, ptr @_ZL6bDebug, align 1
  br i1 %.b1, label %7, label %3

3:                                                ; preds = %2
  tail call void @_Z26gmx_disable_file_bufferingv()
  %4 = tail call noundef ptr @_Z10gmx_ffopenRKNSt10filesystem7__cxx114pathEPKc(ptr noundef nonnull align 8 dereferenceable(40) %1, ptr noundef nonnull @.str)
  store ptr %4, ptr @debug, align 8, !tbaa !4
  store i1 true, ptr @_ZL6bDebug, align 1
  %5 = icmp sgt i32 %0, 1
  br i1 %5, label %6, label %7

6:                                                ; preds = %3
  store i8 1, ptr @gmx_debug_at, align 1, !tbaa !9
  br label %7

7:                                                ; preds = %3, %6, %2
  ret void
}